; Function Attrs: mustprogress nofree norecurse nosync nounwind willreturn memory(argmem: write) uwtable
define void @_ZN13duckdb_brotli33BrotliDecoderSetMetadataCallbacksEPNS_24BrotliDecoderStateStructEPFvPvmEPFvS2_PKhmES2_(ptr noundef writeonly captures(none) initializes((720, 744)) %0, ptr noundef %1, ptr noundef %2, ptr noundef %3) local_unnamed_addr #14 {
  %5 = getelementptr inbounds nuw i8, ptr %0, i64 720
  store ptr %1, ptr %5, align 8, !tbaa !58
  %6 = getelementptr inbounds nuw i8, ptr %0, i64 728
  store ptr %2, ptr %6, align 8, !tbaa !146
  %7 = getelementptr inbounds nuw i8, ptr %0, i64 736
  store ptr %3, ptr %7, align 8, !tbaa !59
  ret void
}